target datalayout = "e-m:e-p270:32:32-p271:32:32-p272:64:64-i64:64-i128:128-f80:128-n8:16:32:64-S128"
target triple = "x86_64-pc-linux-gnu"

; Function Attrs: mustprogress nounwind uwtable
define void @_Z19gmx_mat4_init_unityPA4_f(ptr noundef %0) #0 {
  %2 = alloca ptr, align 8
  %3 = alloca i32, align 4
  %4 = alloca i32, align 4
  store ptr %0, ptr %2, align 8
  store i32 0, ptr %3, align 4
  br label %5

5:                                                ; preds = %37, %1
  %6 = load i32, ptr %3, align 4
  %7 = icmp slt i32 %6, 4
  br i1 %7, label %8, label %40

8:                                                ; preds = %5
  store i32 0, ptr %4, align 4
  br label %9

9:                                                ; preds = %33, %8
  %10 = load i32, ptr %4, align 4
  %11 = icmp slt i32 %10, 4
  br i1 %11, label %12, label %36

12:                                               ; preds = %9
  %13 = load i32, ptr %3, align 4
  %14 = load i32, ptr %4, align 4
  %15 = icmp eq i32 %13, %14
  br i1 %15, label %16, label %24

16:                                               ; preds = %12
  %17 = load ptr, ptr %2, align 8
  %18 = load i32, ptr %3, align 4
  %19 = sext i32 %18 to i64
  %20 = getelementptr inbounds [4 x float], ptr %17, i64 %19
  %21 = load i32, ptr %4, align 4
  %22 = sext i32 %21 to i64
  %23 = getelementptr inbounds [4 x float], ptr %20, i64 0, i64 %22
  store float 1.000000e+00, ptr %23, align 4
  br label %32

24:                                               ; preds = %12
  %25 = load ptr, ptr %2, align 8
  %26 = load i32, ptr %3, align 4
  %27 = sext i32 %26 to i64
  %28 = getelementptr inbounds [4 x float], ptr %25, i64 %27
  %29 = load i32, ptr %4, align 4
  %30 = sext i32 %29 to i64
  %31 = getelementptr inbounds [4 x float], ptr %28, i64 0, i64 %30
  store float 0.000000e+00, ptr %31, align 4
  br label %32

32:                                               ; preds = %24, %16
  br label %33

33:                                               ; preds = %32
  %34 = load i32, ptr %4, align 4
  %35 = add nsw i32 %34, 1
  store i32 %35, ptr %4, align 4
  br label %9, !llvm.loop !12

36:                                               ; preds = %9
  br label %37

37:                                               ; preds = %36
  %38 = load i32, ptr %3, align 4
  %39 = add nsw i32 %38, 1
  store i32 %39, ptr %3, align 4
  br label %5, !llvm.loop !13

40:                                               ; preds = %5
  ret void
}

; Function Attrs: mustprogress nounwind uwtable
define void @_Z25gmx_mat4_init_translationfffPA4_f(float noundef %0, float noundef %1, float noundef %2, ptr noundef %3) #0 {
  %5 = alloca float, align 4
  %6 = alloca float, align 4
  %7 = alloca float, align 4
  %8 = alloca ptr, align 8
  store float %0, ptr %5, align 4
  store float %1, ptr %6, align 4
  store float %2, ptr %7, align 4
  store ptr %3, ptr %8, align 8
  %9 = load ptr, ptr %8, align 8
  call void @_Z19gmx_mat4_init_unityPA4_f(ptr noundef %9)
  %10 = load float, ptr %5, align 4
  %11 = load ptr, ptr %8, align 8
  %12 = getelementptr inbounds [4 x float], ptr %11, i64 3
  %13 = getelementptr inbounds [4 x float], ptr %12, i64 0, i64 0
  store float %10, ptr %13, align 4
  %14 = load float, ptr %6, align 4
  %15 = load ptr, ptr %8, align 8
  %16 = getelementptr inbounds [4 x float], ptr %15, i64 3
  %17 = getelementptr inbounds [4 x float], ptr %16, i64 0, i64 1
  store float %14, ptr %17, align 4
  %18 = load float, ptr %7, align 4
  %19 = load ptr, ptr %8, align 8
  %20 = getelementptr inbounds [4 x float], ptr %19, i64 3
  %21 = getelementptr inbounds [4 x float], ptr %20, i64 0, i64 2
  store float %18, ptr %21, align 4
  ret void
}