; Function Attrs: mustprogress nofree norecurse nosync nounwind memory(argmem: write) uwtable
define void @_Z25gmx_mat4_init_translationfffPA4_f(float noundef %0, float noundef %1, float noundef %2, ptr nocapture noundef writeonly %3) local_unnamed_addr #2 {
  br label %.preheader.i

.preheader.i:                                     ; preds = %8, %4
  %indvars.iv15.i = phi i64 [ 0, %4 ], [ %indvars.iv.next16.i, %8 ]
  br label %5

5:                                                ; preds = %5, %.preheader.i
  %indvars.iv.i = phi i64 [ 0, %.preheader.i ], [ %indvars.iv.next.i, %5 ]
  %6 = icmp eq i64 %indvars.iv15.i, %indvars.iv.i
  %spec.select.i = select i1 %6, float 1.000000e+00, float 0.000000e+00
  %7 = getelementptr inbounds [4 x float], ptr %3, i64 %indvars.iv15.i, i64 %indvars.iv.i
  store float %spec.select.i, ptr %7, align 4
  %indvars.iv.next.i = add nuw nsw i64 %indvars.iv.i, 1
  %exitcond.not.i = icmp eq i64 %indvars.iv.next.i, 4
  br i1 %exitcond.not.i, label %8, label %5, !llvm.loop !12

8:                                                ; preds = %5
  %indvars.iv.next16.i = add nuw nsw i64 %indvars.iv15.i, 1
  %exitcond18.not.i = icmp eq i64 %indvars.iv.next16.i, 4
  br i1 %exitcond18.not.i, label %_Z19gmx_mat4_init_unityPA4_f.exit, label %.preheader.i, !llvm.loop !13

_Z19gmx_mat4_init_unityPA4_f.exit:                ; preds = %8
  %9 = getelementptr inbounds i8, ptr %3, i64 48
  store float %0, ptr %9, align 4
  %10 = getelementptr inbounds i8, ptr %3, i64 52
  store float %1, ptr %10, align 4
  %11 = getelementptr inbounds i8, ptr %3, i64 56
  store float %2, ptr %11, align 4
  ret void
}